; Function Attrs: mustprogress uwtable
define void @_ZNK10open_spiel12crazy_eights16CrazyEightsState12LegalActionsEv(ptr dead_on_unwind noalias nocapture writable sret(%"class.std::vector.45") align 8 %0, ptr nocapture noundef nonnull readonly align 8 dereferenceable(392) %1) unnamed_addr #3 align 2 {
  %3 = getelementptr inbounds nuw i8, ptr %1, i64 60
  %4 = load i32, ptr %3, align 4
  switch i32 %4, label %7 [
    i32 0, label %5
    i32 1, label %6
  ]

5:                                                ; preds = %2
  tail call void @_ZNK10open_spiel12crazy_eights16CrazyEightsState16DealLegalActionsEv(ptr dead_on_unwind writable sret(%"class.std::vector.45") align 8 %0, ptr noundef nonnull align 8 dereferenceable(392) %1)
  br label %8

6:                                                ; preds = %2
  tail call void @_ZNK10open_spiel12crazy_eights16CrazyEightsState16PlayLegalActionsEv(ptr dead_on_unwind writable sret(%"class.std::vector.45") align 8 %0, ptr noundef nonnull align 8 dereferenceable(392) %1)
  br label %8

7:                                                ; preds = %2
  tail call void @llvm.memset.p0.i64(ptr noundef nonnull align 8 dereferenceable(24) %0, i8 0, i64 24, i1 false)
  br label %8

8:                                                ; preds = %7, %6, %5
  ret void
}